target datalayout = "e-m:e-p270:32:32-p271:32:32-p272:64:64-i64:64-i128:128-f80:128-n8:16:32:64-S128"
target triple = "x86_64-pc-linux-gnu"

%struct.dirent = type { i64, i64, i16, i8, [256 x i8] }

@.str = private unnamed_addr constant [34 x i8] c"could not open directory \22%s\22: %m\00", align 1
@.str.1 = private unnamed_addr constant [11 x i8] c"pgfnames.c\00", align 1
@__func__.pgfnames = private unnamed_addr constant [9 x i8] c"pgfnames\00", align 1
@.str.2 = private unnamed_addr constant [2 x i8] c".\00", align 1
@.str.3 = private unnamed_addr constant [3 x i8] c"..\00", align 1
@.str.4 = private unnamed_addr constant [34 x i8] c"could not read directory \22%s\22: %m\00", align 1
@.str.5 = private unnamed_addr constant [35 x i8] c"could not close directory \22%s\22: %m\00", align 1

; Function Attrs: nounwind uwtable
define dso_local ptr @pgfnames(ptr noundef %0) #0 {
  %2 = alloca ptr, align 8
  %3 = alloca ptr, align 8
  %4 = alloca ptr, align 8
  %5 = alloca ptr, align 8
  %6 = alloca ptr, align 8
  %7 = alloca i32, align 4
  %8 = alloca i32, align 4
  %9 = alloca i32, align 4
  store ptr %0, ptr %3, align 8
  call void @llvm.lifetime.start.p0(i64 8, ptr %4) #6
  call void @llvm.lifetime.start.p0(i64 8, ptr %5) #6
  call void @llvm.lifetime.start.p0(i64 8, ptr %6) #6
  call void @llvm.lifetime.start.p0(i64 4, ptr %7) #6
  store i32 0, ptr %7, align 4
  call void @llvm.lifetime.start.p0(i64 4, ptr %8) #6
  store i32 200, ptr %8, align 4
  %10 = load ptr, ptr %3, align 8
  %11 = call ptr @opendir(ptr noundef %10)
  store ptr %11, ptr %4, align 8
  %12 = load ptr, ptr %4, align 8
  %13 = icmp eq ptr %12, null
  br i1 %13, label %14, label %26

14:                                               ; preds = %1
  br label %15

15:                                               ; preds = %14
  br i1 false, label %16, label %18

16:                                               ; preds = %15
  %17 = call zeroext i1 @errstart_cold(i32 noundef 19, ptr noundef null) #7
  br i1 %17, label %20, label %23

18:                                               ; preds = %15
  %19 = call zeroext i1 @errstart(i32 noundef 19, ptr noundef null)
  br i1 %19, label %20, label %23

20:                                               ; preds = %18, %16
  %21 = load ptr, ptr %3, align 8
  %22 = call i32 (ptr, ...) @errmsg_internal(ptr noundef @.str, ptr noundef %21)
  call void @errfinish(ptr noundef @.str.1, i32 noundef 48, ptr noundef @__func__.pgfnames)
  br label %23

23:                                               ; preds = %20, %18, %16
  br label %24

24:                                               ; preds = %23
  br label %25

25:                                               ; preds = %24
  store ptr null, ptr %2, align 8
  store i32 1, ptr %9, align 4
  br label %110

26:                                               ; preds = %1
  %27 = load i32, ptr %8, align 4
  %28 = sext i32 %27 to i64
  %29 = mul i64 %28, 8
  %30 = call ptr @palloc(i64 noundef %29)
  store ptr %30, ptr %6, align 8
  br label %31

31:                                               ; preds = %71, %26
  %32 = call ptr @__errno_location() #8
  store i32 0, ptr %32, align 4
  %33 = load ptr, ptr %4, align 8
  %34 = call ptr @readdir(ptr noundef %33)
  store ptr %34, ptr %5, align 8
  %35 = icmp ne ptr %34, null
  br i1 %35, label %36, label %72

36:                                               ; preds = %31
  %37 = load ptr, ptr %5, align 8
  %38 = getelementptr inbounds nuw %struct.dirent, ptr %37, i32 0, i32 4
  %39 = getelementptr inbounds [256 x i8], ptr %38, i64 0, i64 0
  %40 = call i32 @strcmp(ptr noundef %39, ptr noundef @.str.2) #9
  %41 = icmp ne i32 %40, 0
  br i1 %41, label %42, label %71

42:                                               ; preds = %36
  %43 = load ptr, ptr %5, align 8
  %44 = getelementptr inbounds nuw %struct.dirent, ptr %43, i32 0, i32 4
  %45 = getelementptr inbounds [256 x i8], ptr %44, i64 0, i64 0
  %46 = call i32 @strcmp(ptr noundef %45, ptr noundef @.str.3) #9
  %47 = icmp ne i32 %46, 0
  br i1 %47, label %48, label %71

48:                                               ; preds = %42
  %49 = load i32, ptr %7, align 4
  %50 = add i32 %49, 1
  %51 = load i32, ptr %8, align 4
  %52 = icmp sge i32 %50, %51
  br i1 %52, label %53, label %61

53:                                               ; preds = %48
  %54 = load i32, ptr %8, align 4
  %55 = mul i32 %54, 2
  store i32 %55, ptr %8, align 4
  %56 = load ptr, ptr %6, align 8
  %57 = load i32, ptr %8, align 4
  %58 = sext i32 %57 to i64
  %59 = mul i64 %58, 8
  %60 = call ptr @repalloc(ptr noundef %56, i64 noundef %59)
  store ptr %60, ptr %6, align 8
  br label %61

61:                                               ; preds = %53, %48
  %62 = load ptr, ptr %5, align 8
  %63 = getelementptr inbounds nuw %struct.dirent, ptr %62, i32 0, i32 4
  %64 = getelementptr inbounds [256 x i8], ptr %63, i64 0, i64 0
  %65 = call ptr @pstrdup(ptr noundef %64)
  %66 = load ptr, ptr %6, align 8
  %67 = load i32, ptr %7, align 4
  %68 = add i32 %67, 1
  store i32 %68, ptr %7, align 4
  %69 = sext i32 %67 to i64
  %70 = getelementptr inbounds ptr, ptr %66, i64 %69
  store ptr %65, ptr %70, align 8
  br label %71

71:                                               ; preds = %61, %42, %36
  br label %31, !llvm.loop !4

72:                                               ; preds = %31
  %73 = call ptr @__errno_location() #8
  %74 = load i32, ptr %73, align 4
  %75 = icmp ne i32 %74, 0
  br i1 %75, label %76, label %88

76:                                               ; preds = %72
  br label %77

77:                                               ; preds = %76
  br i1 false, label %78, label %80

78:                                               ; preds = %77
  %79 = call zeroext i1 @errstart_cold(i32 noundef 19, ptr noundef null) #7
  br i1 %79, label %82, label %85

80:                                               ; preds = %77
  %81 = call zeroext i1 @errstart(i32 noundef 19, ptr noundef null)
  br i1 %81, label %82, label %85

82:                                               ; preds = %80, %78
  %83 = load ptr, ptr %3, align 8
  %84 = call i32 (ptr, ...) @errmsg_internal(ptr noundef @.str.4, ptr noundef %83)
  call void @errfinish(ptr noundef @.str.1, i32 noundef 69, ptr noundef @__func__.pgfnames)
  br label %85

85:                                               ; preds = %82, %80, %78
  br label %86

86:                                               ; preds = %85
  br label %87

87:                                               ; preds = %86
  br label %88

88:                                               ; preds = %87, %72
  %89 = load ptr, ptr %6, align 8
  %90 = load i32, ptr %7, align 4
  %91 = sext i32 %90 to i64
  %92 = getelementptr inbounds ptr, ptr %89, i64 %91
  store ptr null, ptr %92, align 8
  %93 = load ptr, ptr %4, align 8
  %94 = call i32 @closedir(ptr noundef %93)
  %95 = icmp ne i32 %94, 0
  br i1 %95, label %96, label %108

96:                                               ; preds = %88
  br label %97

97:                                               ; preds = %96
  br i1 false, label %98, label %100

98:                                               ; preds = %97
  %99 = call zeroext i1 @errstart_cold(i32 noundef 19, ptr noundef null) #7
  br i1 %99, label %102, label %105

100:                                              ; preds = %97
  %101 = call zeroext i1 @errstart(i32 noundef 19, ptr noundef null)
  br i1 %101, label %102, label %105

102:                                              ; preds = %100, %98
  %103 = load ptr, ptr %3, align 8
  %104 = call i32 (ptr, ...) @errmsg_internal(ptr noundef @.str.5, ptr noundef %103)
  call void @errfinish(ptr noundef @.str.1, i32 noundef 74, ptr noundef @__func__.pgfnames)
  br label %105

105:                                              ; preds = %102, %100, %98
  br label %106

106:                                              ; preds = %105
  br label %107

107:                                              ; preds = %106
  br label %108

108:                                              ; preds = %107, %88
  %109 = load ptr, ptr %6, align 8
  store ptr %109, ptr %2, align 8
  store i32 1, ptr %9, align 4
  br label %110

110:                                              ; preds = %108, %25
  call void @llvm.lifetime.end.p0(i64 4, ptr %8) #6
  call void @llvm.lifetime.end.p0(i64 4, ptr %7) #6
  call void @llvm.lifetime.end.p0(i64 8, ptr %6) #6
  call void @llvm.lifetime.end.p0(i64 8, ptr %5) #6
  call void @llvm.lifetime.end.p0(i64 8, ptr %4) #6
  %111 = load ptr, ptr %2, align 8
  ret ptr %111
}

; Function Attrs: nocallback nofree nosync nounwind willreturn memory(argmem: readwrite)
declare void @llvm.lifetime.start.p0(i64 immarg, ptr captures(none)) #1

declare ptr @opendir(ptr noundef) #2

; Function Attrs: cold
declare zeroext i1 @errstart_cold(i32 noundef, ptr noundef) #3

declare zeroext i1 @errstart(i32 noundef, ptr noundef) #2

declare i32 @errmsg_internal(ptr noundef, ...) #2

declare void @errfinish(ptr noundef, i32 noundef, ptr noundef) #2

; Function Attrs: nocallback nofree nosync nounwind willreturn memory(argmem: readwrite)
declare void @llvm.lifetime.end.p0(i64 immarg, ptr captures(none)) #1

declare ptr @palloc(i64 noundef) #2

; Function Attrs: nounwind willreturn memory(none)
declare ptr @__errno_location() #4

declare ptr @readdir(ptr noundef) #2

; Function Attrs: nounwind willreturn memory(read)
declare i32 @strcmp(ptr noundef, ptr noundef) #5

declare ptr @repalloc(ptr noundef, i64 noundef) #2

declare ptr @pstrdup(ptr noundef) #2

declare i32 @closedir(ptr noundef) #2

; Function Attrs: nounwind uwtable
define dso_local void @pgfnames_cleanup(ptr noundef %0) #0 {
  %2 = alloca ptr, align 8
  %3 = alloca ptr, align 8
  store ptr %0, ptr %2, align 8
  call void @llvm.lifetime.start.p0(i64 8, ptr %3) #6
  %4 = load ptr, ptr %2, align 8
  store ptr %4, ptr %3, align 8
  br label %5

5:                                                ; preds = %12, %1
  %6 = load ptr, ptr %3, align 8
  %7 = load ptr, ptr %6, align 8
  %8 = icmp ne ptr %7, null
  br i1 %8, label %9, label %15

9:                                                ; preds = %5
  %10 = load ptr, ptr %3, align 8
  %11 = load ptr, ptr %10, align 8
  call void @pfree(ptr noundef %11)
  br label %12

12:                                               ; preds = %9
  %13 = load ptr, ptr %3, align 8
  %14 = getelementptr inbounds nuw ptr, ptr %13, i32 1
  store ptr %14, ptr %3, align 8
  br label %5, !llvm.loop !6

15:                                               ; preds = %5
  %16 = load ptr, ptr %2, align 8
  call void @pfree(ptr noundef %16)
  call void @llvm.lifetime.end.p0(i64 8, ptr %3) #6
  ret void
}

declare void @pfree(ptr noundef) #2


!llvm.module.flags = !{!0, !1, !2, !3}

!0 = !{i32 1, !"wchar_size", i32 4}
!1 = !{i32 8, !"PIC Level", i32 2}
!2 = !{i32 7, !"PIE Level", i32 2}
!3 = !{i32 7, !"uwtable", i32 2}
!4 = distinct !{!4, !5}
!5 = !{!"llvm.loop.mustprogress"}
!6 = distinct !{!6, !5}
