; ModuleID = 'bench/postgres/original/pgfnames.ll'
source_filename = "bench/postgres/original/pgfnames.ll"
target datalayout = "e-m:e-p270:32:32-p271:32:32-p272:64:64-i64:64-i128:128-f80:128-n8:16:32:64-S128"
target triple = "x86_64-pc-linux-gnu"

@.str = private unnamed_addr constant [34 x i8] c"could not open directory \22%s\22: %m\00", align 1
@.str.1 = private unnamed_addr constant [11 x i8] c"pgfnames.c\00", align 1
@__func__.pgfnames = private unnamed_addr constant [9 x i8] c"pgfnames\00", align 1
@.str.4 = private unnamed_addr constant [34 x i8] c"could not read directory \22%s\22: %m\00", align 1
@.str.5 = private unnamed_addr constant [35 x i8] c"could not close directory \22%s\22: %m\00", align 1

; Function Attrs: nounwind uwtable
define dso_local ptr @pgfnames(ptr noundef %0) local_unnamed_addr #0 {
  %2 = tail call ptr @opendir(ptr noundef %0)
  %3 = icmp eq ptr %2, null
  br i1 %3, label %4, label %6

4:                                                ; preds = %1
  %5 = tail call zeroext i1 @errstart(i32 noundef 19, ptr noundef null) #4
  br i1 %5, label %.sink.split, label %45

6:                                                ; preds = %1
  %7 = tail call ptr @palloc(i64 noundef 1600) #4
  %8 = tail call ptr @__errno_location() #5
  store i32 0, ptr %8, align 4
  %9 = tail call ptr @readdir(ptr noundef nonnull %2) #4
  %.not38 = icmp eq ptr %9, null
  br i1 %.not38, label %._crit_edge, label %sub_0

sub_0:                                            ; preds = %6, %31
  %10 = phi ptr [ %32, %31 ], [ %9, %6 ]
  %.041 = phi i32 [ %.1, %31 ], [ 200, %6 ]
  %.02140 = phi i32 [ %.122, %31 ], [ 0, %6 ]
  %.02339 = phi ptr [ %.124, %31 ], [ %7, %6 ]
  %11 = getelementptr inbounds nuw i8, ptr %10, i64 19
  %12 = load i8, ptr %11, align 1
  %.not44 = icmp eq i8 %12, 46
  br i1 %.not44, label %.tail, label %.tail34.thread

.tail:                                            ; preds = %sub_0
  %13 = getelementptr inbounds nuw i8, ptr %10, i64 20
  %14 = load i8, ptr %13, align 1
  %15 = icmp eq i8 %14, 0
  br i1 %15, label %31, label %sub_136

sub_136:                                          ; preds = %.tail
  %16 = getelementptr inbounds nuw i8, ptr %10, i64 20
  %17 = load i8, ptr %16, align 1
  %.not46 = icmp eq i8 %17, 46
  br i1 %.not46, label %.tail34, label %.tail34.thread

.tail34:                                          ; preds = %sub_136
  %18 = getelementptr inbounds nuw i8, ptr %10, i64 21
  %19 = load i8, ptr %18, align 1
  %20 = icmp eq i8 %19, 0
  br i1 %20, label %31, label %.tail34.thread

.tail34.thread:                                   ; preds = %sub_0, %sub_136, %.tail34
  %21 = add i32 %.02140, 1
  %.not33 = icmp slt i32 %21, %.041
  br i1 %.not33, label %27, label %22

22:                                               ; preds = %.tail34.thread
  %23 = shl i32 %.041, 1
  %24 = sext i32 %23 to i64
  %25 = shl nsw i64 %24, 3
  %26 = tail call ptr @repalloc(ptr noundef %.02339, i64 noundef %25) #4
  br label %27

27:                                               ; preds = %22, %.tail34.thread
  %.225 = phi ptr [ %26, %22 ], [ %.02339, %.tail34.thread ]
  %.2 = phi i32 [ %23, %22 ], [ %.041, %.tail34.thread ]
  %28 = tail call ptr @pstrdup(ptr noundef nonnull %11) #4
  %29 = sext i32 %.02140 to i64
  %30 = getelementptr inbounds ptr, ptr %.225, i64 %29
  store ptr %28, ptr %30, align 8
  br label %31

31:                                               ; preds = %27, %.tail34, %.tail
  %.124 = phi ptr [ %.225, %27 ], [ %.02339, %.tail34 ], [ %.02339, %.tail ]
  %.122 = phi i32 [ %21, %27 ], [ %.02140, %.tail34 ], [ %.02140, %.tail ]
  %.1 = phi i32 [ %.2, %27 ], [ %.041, %.tail34 ], [ %.041, %.tail ]
  store i32 0, ptr %8, align 4
  %32 = tail call ptr @readdir(ptr noundef nonnull %2) #4
  %.not = icmp eq ptr %32, null
  br i1 %.not, label %._crit_edge.loopexit, label %sub_0, !llvm.loop !4

._crit_edge.loopexit:                             ; preds = %31
  %33 = sext i32 %.122 to i64
  br label %._crit_edge

._crit_edge:                                      ; preds = %._crit_edge.loopexit, %6
  %.023.lcssa = phi ptr [ %7, %6 ], [ %.124, %._crit_edge.loopexit ]
  %.021.lcssa = phi i64 [ 0, %6 ], [ %33, %._crit_edge.loopexit ]
  %34 = load i32, ptr %8, align 4
  %.not29 = icmp eq i32 %34, 0
  br i1 %.not29, label %39, label %35

35:                                               ; preds = %._crit_edge
  %36 = tail call zeroext i1 @errstart(i32 noundef 19, ptr noundef null) #4
  br i1 %36, label %37, label %39

37:                                               ; preds = %35
  %38 = tail call i32 (ptr, ...) @errmsg_internal(ptr noundef nonnull @.str.4, ptr noundef %0) #4
  tail call void @errfinish(ptr noundef nonnull @.str.1, i32 noundef 69, ptr noundef nonnull @__func__.pgfnames) #4
  br label %39

39:                                               ; preds = %35, %37, %._crit_edge
  %40 = getelementptr inbounds ptr, ptr %.023.lcssa, i64 %.021.lcssa
  store ptr null, ptr %40, align 8
  %41 = tail call i32 @closedir(ptr noundef nonnull %2)
  %.not30 = icmp eq i32 %41, 0
  br i1 %.not30, label %45, label %42

42:                                               ; preds = %39
  %43 = tail call zeroext i1 @errstart(i32 noundef 19, ptr noundef null) #4
  br i1 %43, label %.sink.split, label %45

.sink.split:                                      ; preds = %42, %4
  %.str.5.sink = phi ptr [ @.str, %4 ], [ @.str.5, %42 ]
  %.sink = phi i32 [ 48, %4 ], [ 74, %42 ]
  %.026.ph = phi ptr [ null, %4 ], [ %.023.lcssa, %42 ]
  %44 = tail call i32 (ptr, ...) @errmsg_internal(ptr noundef nonnull %.str.5.sink, ptr noundef %0) #4
  tail call void @errfinish(ptr noundef nonnull @.str.1, i32 noundef %.sink, ptr noundef nonnull @__func__.pgfnames) #4
  br label %45

45:                                               ; preds = %.sink.split, %39, %42, %4
  %.026 = phi ptr [ null, %4 ], [ %.023.lcssa, %42 ], [ %.023.lcssa, %39 ], [ %.026.ph, %.sink.split ]
  ret ptr %.026
}

; Function Attrs: nofree nounwind
declare noalias noundef ptr @opendir(ptr noundef readonly captures(none)) local_unnamed_addr #1

declare zeroext i1 @errstart(i32 noundef, ptr noundef) local_unnamed_addr #2

declare i32 @errmsg_internal(ptr noundef, ...) local_unnamed_addr #2

declare void @errfinish(ptr noundef, i32 noundef, ptr noundef) local_unnamed_addr #2

declare ptr @palloc(i64 noundef) local_unnamed_addr #2

; Function Attrs: mustprogress nofree nosync nounwind willreturn memory(none)
declare ptr @__errno_location() local_unnamed_addr #3

declare ptr @readdir(ptr noundef) local_unnamed_addr #2

declare ptr @repalloc(ptr noundef, i64 noundef) local_unnamed_addr #2

declare ptr @pstrdup(ptr noundef) local_unnamed_addr #2

; Function Attrs: nofree nounwind
declare noundef i32 @closedir(ptr noundef captures(none)) local_unnamed_addr #1

; Function Attrs: nounwind uwtable
define dso_local void @pgfnames_cleanup(ptr noundef %0) local_unnamed_addr #0 {
  %2 = load ptr, ptr %0, align 8
  %.not6 = icmp eq ptr %2, null
  br i1 %.not6, label %._crit_edge, label %.lr.ph

.lr.ph:                                           ; preds = %1, %.lr.ph
  %3 = phi ptr [ %5, %.lr.ph ], [ %2, %1 ]
  %.07 = phi ptr [ %4, %.lr.ph ], [ %0, %1 ]
  tail call void @pfree(ptr noundef nonnull %3) #4
  %4 = getelementptr inbounds nuw i8, ptr %.07, i64 8
  %5 = load ptr, ptr %4, align 8
  %.not = icmp eq ptr %5, null
  br i1 %.not, label %._crit_edge, label %.lr.ph, !llvm.loop !6

._crit_edge:                                      ; preds = %.lr.ph, %1
  tail call void @pfree(ptr noundef nonnull %0) #4
  ret void
}

declare void @pfree(ptr noundef) local_unnamed_addr #2


!llvm.module.flags = !{!0, !1, !2, !3}

!0 = !{i32 1, !"wchar_size", i32 4}
!1 = !{i32 8, !"PIC Level", i32 2}
!2 = !{i32 7, !"PIE Level", i32 2}
!3 = !{i32 7, !"uwtable", i32 2}
!4 = distinct !{!4, !5}
!5 = !{!"llvm.loop.mustprogress"}
!6 = distinct !{!6, !5}
